; Function Attrs: mustprogress null_pointer_is_valid sspstrong uwtable
define void @_ZN10ExtArgBool9prefValueEv(ptr dead_on_unwind noalias writable writeonly sret(%class.QString) align 8 captures(none) initializes((0, 24)) %0, ptr noundef readonly align 8 captures(none) dereferenceable_or_null(96) %1) unnamed_addr #0 align 2 personality ptr @__gxx_personality_v0 {
  %3 = alloca %class.QString, align 8
  %4 = getelementptr inbounds nuw i8, ptr %1, i64 88
  %5 = load ptr, ptr %4, align 8
  %6 = icmp eq ptr %5, null
  br i1 %6, label %_ZN17QArrayDataPointerIDsED2Ev.exit, label %7

7:                                                ; preds = %2
  %8 = tail call noundef i32 @_ZNK9QCheckBox10checkStateEv(ptr noundef nonnull align 8 dereferenceable_or_null(40) %5)
  %9 = icmp eq i32 %8, 2
  %10 = select i1 %9, ptr @.str.4, ptr @.str.5
  call void @llvm.lifetime.start.p0(i64 24, ptr nonnull %3) #26
  %11 = select i1 %9, i64 4, i64 5
  call void @_ZN7QString8fromUtf8E14QByteArrayView(ptr dead_on_unwind nonnull writable sret(%class.QString) align 8 %3, i64 %11, ptr nonnull %10)
  %12 = load ptr, ptr %3, align 8
  %13 = getelementptr inbounds nuw i8, ptr %3, i64 8
  %14 = load ptr, ptr %13, align 8
  %15 = getelementptr inbounds nuw i8, ptr %3, i64 16
  %16 = load i64, ptr %15, align 8
  call void @llvm.lifetime.end.p0(i64 24, ptr nonnull %3) #26
  br label %_ZN17QArrayDataPointerIDsED2Ev.exit

_ZN17QArrayDataPointerIDsED2Ev.exit:              ; preds = %2, %7
  %.sink5 = phi ptr [ %12, %7 ], [ null, %2 ]
  %.sink4 = phi ptr [ %14, %7 ], [ @.str.6, %2 ]
  %.sink = phi i64 [ %16, %7 ], [ 5, %2 ]
  store ptr %.sink5, ptr %0, align 8
  %17 = getelementptr inbounds nuw i8, ptr %0, i64 8
  store ptr %.sink4, ptr %17, align 8
  %18 = getelementptr inbounds nuw i8, ptr %0, i64 16
  store i64 %.sink, ptr %18, align 8
  ret void
}